target datalayout = "e-m:e-p270:32:32-p271:32:32-p272:64:64-i64:64-i128:128-f80:128-n8:16:32:64-S128"
target triple = "x86_64-pc-linux-gnu"

%class.AdaptiveSizePolicy = type { ptr, double, i64, i64, i64, %class.GCOverheadChecker, ptr, ptr, ptr, ptr, ptr, ptr, ptr, ptr, ptr, ptr, ptr, ptr, ptr, ptr, double, double, double, i8, i32, i32, i32, i32, i8, i8, i8, i32, i32, i64, i64 }
%class.GCOverheadChecker = type { i8, i32 }
%class.AdaptiveWeightedAverage = type { float, i32, i32, i8, float }

@AdaptiveSizeMajorGCDecayTimeScale = external global i64, align 8

; Function Attrs: mustprogress nounwind uwtable
define linkonce_odr hidden noundef float @_Z4MAX2IfET_S0_S0_(float noundef %0, float noundef %1) #1 comdat {
  %3 = alloca float, align 4
  %4 = alloca float, align 4
  store float %0, ptr %3, align 4
  store float %1, ptr %4, align 4
  %5 = load float, ptr %3, align 4
  %6 = load float, ptr %4, align 4
  %7 = fcmp ogt float %5, %6
  br i1 %7, label %8, label %10

8:                                                ; preds = %2
  %9 = load float, ptr %3, align 4
  br label %12

10:                                               ; preds = %2
  %11 = load float, ptr %4, align 4
  br label %12

12:                                               ; preds = %10, %8
  %13 = phi float [ %9, %8 ], [ %11, %10 ]
  ret float %13
}

; Function Attrs: mustprogress nounwind uwtable
define linkonce_odr hidden noundef float @_ZNK23AdaptiveWeightedAverage7averageEv(ptr noundef nonnull align 4 dereferenceable(20) %0) #1 comdat align 2 {
  %2 = alloca ptr, align 8
  store ptr %0, ptr %2, align 8
  %3 = load ptr, ptr %2, align 8
  %4 = getelementptr inbounds %class.AdaptiveWeightedAverage, ptr %3, i32 0, i32 0
  %5 = load float, ptr %4, align 4
  ret float %5
}

; Function Attrs: mustprogress nounwind uwtable
define linkonce_odr hidden noundef double @_Z4MIN2IdET_S0_S0_(double noundef %0, double noundef %1) #1 comdat {
  %3 = alloca double, align 8
  %4 = alloca double, align 8
  store double %0, ptr %3, align 8
  store double %1, ptr %4, align 8
  %5 = load double, ptr %3, align 8
  %6 = load double, ptr %4, align 8
  %7 = fcmp olt double %5, %6
  br i1 %7, label %8, label %10

8:                                                ; preds = %2
  %9 = load double, ptr %3, align 8
  br label %12

10:                                               ; preds = %2
  %11 = load double, ptr %4, align 8
  br label %12

12:                                               ; preds = %10, %8
  %13 = phi double [ %9, %8 ], [ %11, %10 ]
  ret double %13
}

; Function Attrs: mustprogress nounwind uwtable
define linkonce_odr hidden noundef double @_ZNK18AdaptiveSizePolicy13major_gc_costEv(ptr noundef nonnull align 8 dereferenceable(232) %0) #1 comdat align 2 {
  %2 = alloca ptr, align 8
  store ptr %0, ptr %2, align 8
  %3 = load ptr, ptr %2, align 8
  %4 = getelementptr inbounds %class.AdaptiveSizePolicy, ptr %3, i32 0, i32 10
  %5 = load ptr, ptr %4, align 8
  %6 = call noundef float @_ZNK23AdaptiveWeightedAverage7averageEv(ptr noundef nonnull align 4 dereferenceable(20) %5)
  %7 = call noundef float @_Z4MAX2IfET_S0_S0_(float noundef 0.000000e+00, float noundef %6)
  %8 = fpext float %7 to double
  ret double %8
}

; Function Attrs: mustprogress nounwind uwtable
define hidden noundef double @_ZNK18AdaptiveSizePolicy22decaying_major_gc_costEv(ptr noundef nonnull align 8 dereferenceable(232) %0) #1 align 2 {
  %2 = alloca ptr, align 8
  %3 = alloca double, align 8
  %4 = alloca double, align 8
  %5 = alloca double, align 8
  store ptr %0, ptr %2, align 8
  %6 = load ptr, ptr %2, align 8
  %7 = load ptr, ptr %6, align 8
  %8 = getelementptr inbounds ptr, ptr %7, i64 3
  %9 = load ptr, ptr %8, align 8
  %10 = call noundef double %9(ptr noundef nonnull align 8 dereferenceable(232) %6)
  store double %10, ptr %3, align 8
  %11 = call noundef double @_ZNK18AdaptiveSizePolicy13major_gc_costEv(ptr noundef nonnull align 8 dereferenceable(232) %6)
  store double %11, ptr %4, align 8
  %12 = load double, ptr %4, align 8
  store double %12, ptr %5, align 8
  %13 = load ptr, ptr %6, align 8
  %14 = getelementptr inbounds ptr, ptr %13, i64 2
  %15 = load ptr, ptr %14, align 8
  %16 = call noundef double %15(ptr noundef nonnull align 8 dereferenceable(232) %6)
  %17 = fcmp ogt double %16, 0.000000e+00
  br i1 %17, label %18, label %30

18:                                               ; preds = %1
  %19 = call noundef double @_ZNK18AdaptiveSizePolicy13major_gc_costEv(ptr noundef nonnull align 8 dereferenceable(232) %6)
  %20 = load i64, ptr @AdaptiveSizeMajorGCDecayTimeScale, align 8
  %21 = uitofp i64 %20 to double
  %22 = load double, ptr %3, align 8
  %23 = fmul double %21, %22
  %24 = fmul double %19, %23
  %25 = load ptr, ptr %6, align 8
  %26 = getelementptr inbounds ptr, ptr %25, i64 2
  %27 = load ptr, ptr %26, align 8
  %28 = call noundef double %27(ptr noundef nonnull align 8 dereferenceable(232) %6)
  %29 = fdiv double %24, %28
  store double %29, ptr %5, align 8
  br label %30

30:                                               ; preds = %18, %1
  %31 = load double, ptr %4, align 8
  %32 = load double, ptr %5, align 8
  %33 = call noundef double @_Z4MIN2IdET_S0_S0_(double noundef %31, double noundef %32)
  ret double %33
}