; Function Attrs: mustprogress nounwind uwtable
define hidden noundef double @_ZNK18AdaptiveSizePolicy22decaying_major_gc_costEv(ptr noundef nonnull align 8 dereferenceable(232) %0) local_unnamed_addr #0 align 2 {
  %2 = load ptr, ptr %0, align 8
  %3 = getelementptr inbounds i8, ptr %2, i64 24
  %4 = load ptr, ptr %3, align 8
  %5 = tail call noundef double %4(ptr noundef nonnull align 8 dereferenceable(232) %0) #10
  %6 = getelementptr inbounds i8, ptr %0, i64 80
  %7 = load ptr, ptr %6, align 8
  %8 = load float, ptr %7, align 4
  %9 = fcmp olt float %8, 0.000000e+00
  %10 = select i1 %9, float 0.000000e+00, float %8
  %11 = fpext float %10 to double
  %12 = load ptr, ptr %0, align 8
  %13 = getelementptr inbounds i8, ptr %12, i64 16
  %14 = load ptr, ptr %13, align 8
  %15 = tail call noundef double %14(ptr noundef nonnull align 8 dereferenceable(232) %0) #10
  %16 = fcmp ogt double %15, 0.000000e+00
  br i1 %16, label %17, label %32

17:                                               ; preds = %1
  %18 = load ptr, ptr %6, align 8
  %19 = load float, ptr %18, align 4
  %20 = fcmp olt float %19, 0.000000e+00
  %21 = select i1 %20, float 0.000000e+00, float %19
  %22 = fpext float %21 to double
  %23 = load i64, ptr @AdaptiveSizeMajorGCDecayTimeScale, align 8
  %24 = uitofp i64 %23 to double
  %25 = fmul double %5, %24
  %26 = fmul double %25, %22
  %27 = load ptr, ptr %0, align 8
  %28 = getelementptr inbounds i8, ptr %27, i64 16
  %29 = load ptr, ptr %28, align 8
  %30 = tail call noundef double %29(ptr noundef nonnull align 8 dereferenceable(232) %0) #10
  %31 = fdiv double %26, %30
  br label %32

32:                                               ; preds = %17, %1
  %.0 = phi double [ %31, %17 ], [ %11, %1 ]
  %33 = fcmp ogt double %.0, %11
  %34 = select i1 %33, double %11, double %.0
  ret double %34
}